; ModuleID = '14/184.c'
source_filename = "14/184.c"
target datalayout = "e-m:e-p270:32:32-p271:32:32-p272:64:64-i64:64-f80:128-n8:16:32:64-S128"
target triple = "x86_64-pc-linux-gnu"

%struct.student = type { i32, i32, i32 }

@.str = private unnamed_addr constant [3 x i8] c"%d\00", align 1
@.str.1 = private unnamed_addr constant [9 x i8] c"%d %d %d\00", align 1
@.str.2 = private unnamed_addr constant [7 x i8] c"%d %d\0A\00", align 1

; Function Attrs: noinline nounwind uwtable
define dso_local i32 @main() #0 {
  %1 = alloca i32, align 4
  %2 = alloca i32, align 4
  %3 = alloca i8*, align 8
  %4 = alloca i64, align 8
  %5 = alloca i32, align 4
  %6 = alloca i32, align 4
  %7 = alloca i32, align 4
  %8 = alloca i32, align 4
  store i32 0, i32* %1, align 4
  %9 = call i32 (i8*, ...) @__isoc99_scanf(i8* getelementptr inbounds ([3 x i8], [3 x i8]* @.str, i64 0, i64 0), i32* %2)
  %10 = load i32, i32* %2, align 4
  %11 = add nsw i32 %10, 10
  %12 = zext i32 %11 to i64
  %13 = call i8* @llvm.stacksave()
  store i8* %13, i8** %3, align 8
  %14 = alloca %struct.student, i64 %12, align 16
  store i64 %12, i64* %4, align 8
  store i32 1, i32* %5, align 4
  store i32 1, i32* %6, align 4
  store i32 1, i32* %7, align 4
  store i32 1, i32* %8, align 4
  br label %15

15:                                               ; preds = %116, %0
  %16 = load i32, i32* %8, align 4
  %17 = load i32, i32* %2, align 4
  %18 = icmp sle i32 %16, %17
  br i1 %18, label %19, label %119

19:                                               ; preds = %15
  %20 = load i32, i32* %8, align 4
  %21 = sext i32 %20 to i64
  %22 = getelementptr inbounds %struct.student, %struct.student* %14, i64 %21
  %23 = getelementptr inbounds %struct.student, %struct.student* %22, i32 0, i32 0
  %24 = load i32, i32* %8, align 4
  %25 = sext i32 %24 to i64
  %26 = getelementptr inbounds %struct.student, %struct.student* %14, i64 %25
  %27 = getelementptr inbounds %struct.student, %struct.student* %26, i32 0, i32 1
  %28 = load i32, i32* %8, align 4
  %29 = sext i32 %28 to i64
  %30 = getelementptr inbounds %struct.student, %struct.student* %14, i64 %29
  %31 = getelementptr inbounds %struct.student, %struct.student* %30, i32 0, i32 2
  %32 = call i32 (i8*, ...) @__isoc99_scanf(i8* getelementptr inbounds ([9 x i8], [9 x i8]* @.str.1, i64 0, i64 0), i32* %23, i32* %27, i32* %31)
  %33 = load i32, i32* %8, align 4
  %34 = sext i32 %33 to i64
  %35 = getelementptr inbounds %struct.student, %struct.student* %14, i64 %34
  %36 = getelementptr inbounds %struct.student, %struct.student* %35, i32 0, i32 1
  %37 = load i32, i32* %36, align 4
  %38 = load i32, i32* %8, align 4
  %39 = sext i32 %38 to i64
  %40 = getelementptr inbounds %struct.student, %struct.student* %14, i64 %39
  %41 = getelementptr inbounds %struct.student, %struct.student* %40, i32 0, i32 2
  %42 = load i32, i32* %41, align 4
  %43 = add nsw i32 %37, %42
  %44 = load i32, i32* %5, align 4
  %45 = sext i32 %44 to i64
  %46 = getelementptr inbounds %struct.student, %struct.student* %14, i64 %45
  %47 = getelementptr inbounds %struct.student, %struct.student* %46, i32 0, i32 1
  %48 = load i32, i32* %47, align 4
  %49 = load i32, i32* %5, align 4
  %50 = sext i32 %49 to i64
  %51 = getelementptr inbounds %struct.student, %struct.student* %14, i64 %50
  %52 = getelementptr inbounds %struct.student, %struct.student* %51, i32 0, i32 2
  %53 = load i32, i32* %52, align 4
  %54 = add nsw i32 %48, %53
  %55 = icmp sgt i32 %43, %54
  br i1 %55, label %56, label %60

56:                                               ; preds = %19
  %57 = load i32, i32* %6, align 4
  store i32 %57, i32* %7, align 4
  %58 = load i32, i32* %5, align 4
  store i32 %58, i32* %6, align 4
  %59 = load i32, i32* %8, align 4
  store i32 %59, i32* %5, align 4
  br label %115

60:                                               ; preds = %19
  %61 = load i32, i32* %8, align 4
  %62 = sext i32 %61 to i64
  %63 = getelementptr inbounds %struct.student, %struct.student* %14, i64 %62
  %64 = getelementptr inbounds %struct.student, %struct.student* %63, i32 0, i32 1
  %65 = load i32, i32* %64, align 4
  %66 = load i32, i32* %8, align 4
  %67 = sext i32 %66 to i64
  %68 = getelementptr inbounds %struct.student, %struct.student* %14, i64 %67
  %69 = getelementptr inbounds %struct.student, %struct.student* %68, i32 0, i32 2
  %70 = load i32, i32* %69, align 4
  %71 = add nsw i32 %65, %70
  %72 = load i32, i32* %6, align 4
  %73 = sext i32 %72 to i64
  %74 = getelementptr inbounds %struct.student, %struct.student* %14, i64 %73
  %75 = getelementptr inbounds %struct.student, %struct.student* %74, i32 0, i32 1
  %76 = load i32, i32* %75, align 4
  %77 = load i32, i32* %6, align 4
  %78 = sext i32 %77 to i64
  %79 = getelementptr inbounds %struct.student, %struct.student* %14, i64 %78
  %80 = getelementptr inbounds %struct.student, %struct.student* %79, i32 0, i32 2
  %81 = load i32, i32* %80, align 4
  %82 = add nsw i32 %76, %81
  %83 = icmp sgt i32 %71, %82
  br i1 %83, label %84, label %87

84:                                               ; preds = %60
  %85 = load i32, i32* %6, align 4
  store i32 %85, i32* %7, align 4
  %86 = load i32, i32* %8, align 4
  store i32 %86, i32* %6, align 4
  br label %114

87:                                               ; preds = %60
  %88 = load i32, i32* %8, align 4
  %89 = sext i32 %88 to i64
  %90 = getelementptr inbounds %struct.student, %struct.student* %14, i64 %89
  %91 = getelementptr inbounds %struct.student, %struct.student* %90, i32 0, i32 1
  %92 = load i32, i32* %91, align 4
  %93 = load i32, i32* %8, align 4
  %94 = sext i32 %93 to i64
  %95 = getelementptr inbounds %struct.student, %struct.student* %14, i64 %94
  %96 = getelementptr inbounds %struct.student, %struct.student* %95, i32 0, i32 2
  %97 = load i32, i32* %96, align 4
  %98 = add nsw i32 %92, %97
  %99 = load i32, i32* %7, align 4
  %100 = sext i32 %99 to i64
  %101 = getelementptr inbounds %struct.student, %struct.student* %14, i64 %100
  %102 = getelementptr inbounds %struct.student, %struct.student* %101, i32 0, i32 1
  %103 = load i32, i32* %102, align 4
  %104 = load i32, i32* %7, align 4
  %105 = sext i32 %104 to i64
  %106 = getelementptr inbounds %struct.student, %struct.student* %14, i64 %105
  %107 = getelementptr inbounds %struct.student, %struct.student* %106, i32 0, i32 2
  %108 = load i32, i32* %107, align 4
  %109 = add nsw i32 %103, %108
  %110 = icmp sgt i32 %98, %109
  br i1 %110, label %111, label %113

111:                                              ; preds = %87
  %112 = load i32, i32* %8, align 4
  store i32 %112, i32* %7, align 4
  br label %113

113:                                              ; preds = %111, %87
  br label %114

114:                                              ; preds = %113, %84
  br label %115

115:                                              ; preds = %114, %56
  br label %116

116:                                              ; preds = %115
  %117 = load i32, i32* %8, align 4
  %118 = add nsw i32 %117, 1
  store i32 %118, i32* %8, align 4
  br label %15

119:                                              ; preds = %15
  %120 = load i32, i32* %5, align 4
  %121 = sext i32 %120 to i64
  %122 = getelementptr inbounds %struct.student, %struct.student* %14, i64 %121
  %123 = getelementptr inbounds %struct.student, %struct.student* %122, i32 0, i32 0
  %124 = load i32, i32* %123, align 4
  %125 = load i32, i32* %5, align 4
  %126 = sext i32 %125 to i64
  %127 = getelementptr inbounds %struct.student, %struct.student* %14, i64 %126
  %128 = getelementptr inbounds %struct.student, %struct.student* %127, i32 0, i32 1
  %129 = load i32, i32* %128, align 4
  %130 = load i32, i32* %5, align 4
  %131 = sext i32 %130 to i64
  %132 = getelementptr inbounds %struct.student, %struct.student* %14, i64 %131
  %133 = getelementptr inbounds %struct.student, %struct.student* %132, i32 0, i32 2
  %134 = load i32, i32* %133, align 4
  %135 = add nsw i32 %129, %134
  %136 = call i32 (i8*, ...) @printf(i8* getelementptr inbounds ([7 x i8], [7 x i8]* @.str.2, i64 0, i64 0), i32 %124, i32 %135)
  %137 = load i32, i32* %6, align 4
  %138 = sext i32 %137 to i64
  %139 = getelementptr inbounds %struct.student, %struct.student* %14, i64 %138
  %140 = getelementptr inbounds %struct.student, %struct.student* %139, i32 0, i32 0
  %141 = load i32, i32* %140, align 4
  %142 = load i32, i32* %6, align 4
  %143 = sext i32 %142 to i64
  %144 = getelementptr inbounds %struct.student, %struct.student* %14, i64 %143
  %145 = getelementptr inbounds %struct.student, %struct.student* %144, i32 0, i32 1
  %146 = load i32, i32* %145, align 4
  %147 = load i32, i32* %6, align 4
  %148 = sext i32 %147 to i64
  %149 = getelementptr inbounds %struct.student, %struct.student* %14, i64 %148
  %150 = getelementptr inbounds %struct.student, %struct.student* %149, i32 0, i32 2
  %151 = load i32, i32* %150, align 4
  %152 = add nsw i32 %146, %151
  %153 = call i32 (i8*, ...) @printf(i8* getelementptr inbounds ([7 x i8], [7 x i8]* @.str.2, i64 0, i64 0), i32 %141, i32 %152)
  %154 = load i32, i32* %7, align 4
  %155 = sext i32 %154 to i64
  %156 = getelementptr inbounds %struct.student, %struct.student* %14, i64 %155
  %157 = getelementptr inbounds %struct.student, %struct.student* %156, i32 0, i32 0
  %158 = load i32, i32* %157, align 4
  %159 = load i32, i32* %7, align 4
  %160 = sext i32 %159 to i64
  %161 = getelementptr inbounds %struct.student, %struct.student* %14, i64 %160
  %162 = getelementptr inbounds %struct.student, %struct.student* %161, i32 0, i32 1
  %163 = load i32, i32* %162, align 4
  %164 = load i32, i32* %7, align 4
  %165 = sext i32 %164 to i64
  %166 = getelementptr inbounds %struct.student, %struct.student* %14, i64 %165
  %167 = getelementptr inbounds %struct.student, %struct.student* %166, i32 0, i32 2
  %168 = load i32, i32* %167, align 4
  %169 = add nsw i32 %163, %168
  %170 = call i32 (i8*, ...) @printf(i8* getelementptr inbounds ([7 x i8], [7 x i8]* @.str.2, i64 0, i64 0), i32 %158, i32 %169)
  %171 = call i32 @getchar()
  %172 = call i32 @getchar()
  %173 = call i32 @getchar()
  %174 = load i8*, i8** %3, align 8
  call void @llvm.stackrestore(i8* %174)
  %175 = load i32, i32* %1, align 4
  ret i32 %175
}

declare dso_local i32 @__isoc99_scanf(i8*, ...) #1

; Function Attrs: nounwind
declare i8* @llvm.stacksave() #2

declare dso_local i32 @printf(i8*, ...) #1

declare dso_local i32 @getchar() #1

; Function Attrs: nounwind
declare void @llvm.stackrestore(i8*) #2


!llvm.module.flags = !{!0}
!llvm.ident = !{!1}

!0 = !{i32 1, !"wchar_size", i32 4}
!1 = !{!"clang version 10.0.0-4ubuntu1 "}
